target datalayout = "e-m:e-p270:32:32-p271:32:32-p272:64:64-i64:64-i128:128-f80:128-n8:16:32:64-S128"
target triple = "x86_64-pc-linux-gnu"

%"struct.simdjson::internal::decimal" = type { i32, i32, i8, i8, [768 x i8] }
%"struct.simdjson::internal::adjusted_mantissa" = type <{ i64, i32, [4 x i8] }>

; Function Attrs: mustprogress nounwind uwtable
define linkonce_odr dso_local noundef i32 @_ZN8simdjson8internal13binary_formatIdE10sign_indexEv() #2 comdat align 2 {
  ret i32 63
}

; Function Attrs: mustprogress nounwind uwtable
define linkonce_odr dso_local noundef i32 @_ZN8simdjson8internal13binary_formatIdE22mantissa_explicit_bitsEv() #2 comdat align 2 {
  ret i32 52
}

; Function Attrs: mustprogress uwtable
define linkonce_odr dso_local { i64, i32 } @_ZN8simdjson8internal19parse_long_mantissaINS0_13binary_formatIdEEEENS0_17adjusted_mantissaEPKcS6_(ptr noundef %0, ptr noundef %1) #0 comdat {
  %3 = alloca %"struct.simdjson::internal::adjusted_mantissa", align 8
  %4 = alloca ptr, align 8
  %5 = alloca ptr, align 8
  %6 = alloca %"struct.simdjson::internal::decimal", align 4
  %7 = alloca { i64, i32 }, align 8
  store ptr %0, ptr %4, align 8, !tbaa !4
  store ptr %1, ptr %5, align 8, !tbaa !4
  call void @llvm.lifetime.start.p0(i64 780, ptr %6) #10
  %8 = load ptr, ptr %5, align 8, !tbaa !4
  call void @_ZN8simdjson8internal13parse_decimalERPKcS2_(ptr dead_on_unwind writable sret(%"struct.simdjson::internal::decimal") align 4 %6, ptr noundef nonnull align 8 dereferenceable(8) %4, ptr noundef %8) #10
  %9 = call { i64, i32 } @_ZN8simdjson8internal13compute_floatINS0_13binary_formatIdEEEENS0_17adjusted_mantissaERNS0_7decimalE(ptr noundef nonnull align 4 dereferenceable(780) %6)
  store { i64, i32 } %9, ptr %7, align 8
  call void @llvm.memcpy.p0.p0.i64(ptr align 8 %3, ptr align 8 %7, i64 12, i1 false)
  call void @llvm.lifetime.end.p0(i64 780, ptr %6) #10
  %10 = load { i64, i32 }, ptr %3, align 8
  ret { i64, i32 } %10
}

; Function Attrs: mustprogress nounwind uwtable
define dso_local noundef double @_ZN8simdjson8internal10from_charsEPKcS2_(ptr noundef %0, ptr noundef %1) #2 personality ptr @__gxx_personality_v0 {
  %3 = alloca ptr, align 8
  %4 = alloca ptr, align 8
  %5 = alloca i8, align 1
  %6 = alloca %"struct.simdjson::internal::adjusted_mantissa", align 8
  %7 = alloca { i64, i32 }, align 8
  %8 = alloca i64, align 8
  %9 = alloca double, align 8
  store ptr %0, ptr %3, align 8, !tbaa !4
  store ptr %1, ptr %4, align 8, !tbaa !4
  call void @llvm.lifetime.start.p0(i64 1, ptr %5) #10
  %10 = load ptr, ptr %3, align 8, !tbaa !4
  %11 = getelementptr inbounds i8, ptr %10, i64 0
  %12 = load i8, ptr %11, align 1, !tbaa !15
  %13 = sext i8 %12 to i32
  %14 = icmp eq i32 %13, 45
  %15 = zext i1 %14 to i8
  store i8 %15, ptr %5, align 1, !tbaa !11
  %16 = load i8, ptr %5, align 1, !tbaa !11, !range !13, !noundef !14
  %17 = trunc i8 %16 to i1
  br i1 %17, label %18, label %21

18:                                               ; preds = %2
  %19 = load ptr, ptr %3, align 8, !tbaa !4
  %20 = getelementptr inbounds nuw i8, ptr %19, i32 1
  store ptr %20, ptr %3, align 8, !tbaa !4
  br label %21

21:                                               ; preds = %18, %2
  call void @llvm.lifetime.start.p0(i64 16, ptr %6) #10
  %22 = load ptr, ptr %3, align 8, !tbaa !4
  %23 = load ptr, ptr %4, align 8, !tbaa !4
  %24 = invoke { i64, i32 } @_ZN8simdjson8internal19parse_long_mantissaINS0_13binary_formatIdEEEENS0_17adjusted_mantissaEPKcS6_(ptr noundef %22, ptr noundef %23)
          to label %25 unwind label %51

25:                                               ; preds = %21
  store { i64, i32 } %24, ptr %7, align 8
  call void @llvm.memcpy.p0.p0.i64(ptr align 8 %6, ptr align 8 %7, i64 12, i1 false)
  call void @llvm.lifetime.start.p0(i64 8, ptr %8) #10
  %26 = getelementptr inbounds nuw %"struct.simdjson::internal::adjusted_mantissa", ptr %6, i32 0, i32 0
  %27 = load i64, ptr %26, align 8, !tbaa !57
  store i64 %27, ptr %8, align 8, !tbaa !21
  %28 = getelementptr inbounds nuw %"struct.simdjson::internal::adjusted_mantissa", ptr %6, i32 0, i32 1
  %29 = load i32, ptr %28, align 8, !tbaa !59
  %30 = sext i32 %29 to i64
  %31 = invoke noundef i32 @_ZN8simdjson8internal13binary_formatIdE22mantissa_explicit_bitsEv()
          to label %32 unwind label %51

32:                                               ; preds = %25
  %33 = zext i32 %31 to i64
  %34 = shl i64 %30, %33
  %35 = load i64, ptr %8, align 8, !tbaa !21
  %36 = or i64 %35, %34
  store i64 %36, ptr %8, align 8, !tbaa !21
  %37 = load i8, ptr %5, align 1, !tbaa !11, !range !13, !noundef !14
  %38 = trunc i8 %37 to i1
  br i1 %38, label %39, label %46

39:                                               ; preds = %32
  %40 = load i64, ptr %8, align 8, !tbaa !21
  %41 = invoke noundef i32 @_ZN8simdjson8internal13binary_formatIdE10sign_indexEv()
          to label %42 unwind label %51

42:                                               ; preds = %39
  %43 = zext i32 %41 to i64
  %44 = shl i64 1, %43
  %45 = or i64 %40, %44
  br label %48

46:                                               ; preds = %32
  %47 = load i64, ptr %8, align 8, !tbaa !21
  br label %48

48:                                               ; preds = %46, %42
  %49 = phi i64 [ %45, %42 ], [ %47, %46 ]
  store i64 %49, ptr %8, align 8, !tbaa !21
  call void @llvm.lifetime.start.p0(i64 8, ptr %9) #10
  call void @llvm.memcpy.p0.p0.i64(ptr align 8 %9, ptr align 8 %8, i64 8, i1 false)
  %50 = load double, ptr %9, align 8, !tbaa !9
  call void @llvm.lifetime.end.p0(i64 8, ptr %9) #10
  call void @llvm.lifetime.end.p0(i64 8, ptr %8) #10
  call void @llvm.lifetime.end.p0(i64 16, ptr %6) #10
  call void @llvm.lifetime.end.p0(i64 1, ptr %5) #10
  ret double %50

51:                                               ; preds = %39, %25, %21
  %52 = landingpad { ptr, i32 }
          catch ptr null
  %53 = extractvalue { ptr, i32 } %52, 0
  call void @__clang_call_terminate(ptr %53) #56
  unreachable
}