; Function Attrs: mustprogress nounwind uwtable
define dso_local noundef double @_ZN8simdjson8internal10from_charsEPKcS2_(ptr noundef %0, ptr noundef %1) local_unnamed_addr #6 personality ptr @__gxx_personality_v0 {
  %3 = alloca ptr, align 8
  %4 = alloca %"struct.simdjson::internal::decimal", align 4
  %5 = load i8, ptr %0, align 1, !tbaa !4
  %6 = icmp eq i8 %5, 45
  %spec.select.idx = zext i1 %6 to i64
  %spec.select = getelementptr inbounds nuw i8, ptr %0, i64 %spec.select.idx
  call void @llvm.lifetime.start.p0(i64 8, ptr nonnull %3)
  store ptr %spec.select, ptr %3, align 8, !tbaa !18
  call void @llvm.lifetime.start.p0(i64 780, ptr nonnull %4) #45
  call void @_ZN8simdjson8internal13parse_decimalERPKcS2_(ptr dead_on_unwind nonnull writable sret(%"struct.simdjson::internal::decimal") align 4 %4, ptr noundef nonnull align 8 dereferenceable(8) %3, ptr noundef %1) #45
  %7 = invoke { i64, i32 } @_ZN8simdjson8internal13compute_floatINS0_13binary_formatIdEEEENS0_17adjusted_mantissaERNS0_7decimalE(ptr noundef nonnull align 4 dereferenceable(780) %4)
          to label %8 unwind label %14

8:                                                ; preds = %2
  call void @llvm.lifetime.end.p0(i64 780, ptr nonnull %4) #45
  call void @llvm.lifetime.end.p0(i64 8, ptr nonnull %3)
  %.fca.0.extract = extractvalue { i64, i32 } %7, 0
  %.fca.1.extract = extractvalue { i64, i32 } %7, 1
  %9 = zext i32 %.fca.1.extract to i64
  %10 = shl i64 %9, 52
  %11 = or i64 %10, %.fca.0.extract
  %12 = or i64 %11, -9223372036854775808
  %spec.select10 = select i1 %6, i64 %12, i64 %11
  %13 = bitcast i64 %spec.select10 to double
  ret double %13

14:                                               ; preds = %2
  %15 = landingpad { ptr, i32 }
          catch ptr null
  %16 = extractvalue { ptr, i32 } %15, 0
  call void @__clang_call_terminate(ptr %16) #46
  unreachable
}